target datalayout = "e-m:e-p270:32:32-p271:32:32-p272:64:64-i64:64-i128:128-f80:128-n8:16:32:64-S128"
target triple = "x86_64-pc-linux-gnu"

%struct.tm = type { i32, i32, i32, i32, i32, i32, i32, i32, i32, i64, ptr }

; Function Attrs: inlinehint nounwind uwtable
define internal zeroext i16 @archive_le16dec(ptr noundef %0) #7 {
  %2 = alloca ptr, align 8
  %3 = alloca ptr, align 8
  %4 = alloca i32, align 4
  %5 = alloca i32, align 4
  store ptr %0, ptr %2, align 8, !tbaa !95
  call void @llvm.lifetime.start.p0(i64 8, ptr %3) #11
  %6 = load ptr, ptr %2, align 8, !tbaa !95
  store ptr %6, ptr %3, align 8, !tbaa !33
  call void @llvm.lifetime.start.p0(i64 4, ptr %4) #11
  %7 = load ptr, ptr %3, align 8, !tbaa !33
  %8 = getelementptr inbounds i8, ptr %7, i64 1
  %9 = load i8, ptr %8, align 1, !tbaa !34
  %10 = zext i8 %9 to i32
  store i32 %10, ptr %4, align 4, !tbaa !11
  call void @llvm.lifetime.start.p0(i64 4, ptr %5) #11
  %11 = load ptr, ptr %3, align 8, !tbaa !33
  %12 = getelementptr inbounds i8, ptr %11, i64 0
  %13 = load i8, ptr %12, align 1, !tbaa !34
  %14 = zext i8 %13 to i32
  store i32 %14, ptr %5, align 4, !tbaa !11
  %15 = load i32, ptr %4, align 4, !tbaa !11
  %16 = shl i32 %15, 8
  %17 = load i32, ptr %5, align 4, !tbaa !11
  %18 = or i32 %16, %17
  %19 = trunc i32 %18 to i16
  call void @llvm.lifetime.end.p0(i64 4, ptr %5) #11
  call void @llvm.lifetime.end.p0(i64 4, ptr %4) #11
  call void @llvm.lifetime.end.p0(i64 8, ptr %3) #11
  ret i16 %19
}

; Function Attrs: nounwind uwtable
define internal i64 @cab_dos_time(ptr noundef %0) #0 {
  %2 = alloca ptr, align 8
  %3 = alloca i32, align 4
  %4 = alloca i32, align 4
  %5 = alloca %struct.tm, align 8
  store ptr %0, ptr %2, align 8, !tbaa !33
  call void @llvm.lifetime.start.p0(i64 4, ptr %3) #11
  call void @llvm.lifetime.start.p0(i64 4, ptr %4) #11
  call void @llvm.lifetime.start.p0(i64 56, ptr %5) #11
  %6 = load ptr, ptr %2, align 8, !tbaa !33
  %7 = call zeroext i16 @archive_le16dec(ptr noundef %6)
  %8 = zext i16 %7 to i32
  store i32 %8, ptr %4, align 4, !tbaa !11
  %9 = load ptr, ptr %2, align 8, !tbaa !33
  %10 = getelementptr inbounds i8, ptr %9, i64 2
  %11 = call zeroext i16 @archive_le16dec(ptr noundef %10)
  %12 = zext i16 %11 to i32
  store i32 %12, ptr %3, align 4, !tbaa !11
  call void @llvm.memset.p0.i64(ptr align 8 %5, i8 0, i64 56, i1 false)
  %13 = load i32, ptr %4, align 4, !tbaa !11
  %14 = ashr i32 %13, 9
  %15 = and i32 %14, 127
  %16 = add nsw i32 %15, 80
  %17 = getelementptr inbounds nuw %struct.tm, ptr %5, i32 0, i32 5
  store i32 %16, ptr %17, align 4, !tbaa !135
  %18 = load i32, ptr %4, align 4, !tbaa !11
  %19 = ashr i32 %18, 5
  %20 = and i32 %19, 15
  %21 = sub nsw i32 %20, 1
  %22 = getelementptr inbounds nuw %struct.tm, ptr %5, i32 0, i32 4
  store i32 %21, ptr %22, align 8, !tbaa !137
  %23 = load i32, ptr %4, align 4, !tbaa !11
  %24 = and i32 %23, 31
  %25 = getelementptr inbounds nuw %struct.tm, ptr %5, i32 0, i32 3
  store i32 %24, ptr %25, align 4, !tbaa !138
  %26 = load i32, ptr %3, align 4, !tbaa !11
  %27 = ashr i32 %26, 11
  %28 = and i32 %27, 31
  %29 = getelementptr inbounds nuw %struct.tm, ptr %5, i32 0, i32 2
  store i32 %28, ptr %29, align 8, !tbaa !139
  %30 = load i32, ptr %3, align 4, !tbaa !11
  %31 = ashr i32 %30, 5
  %32 = and i32 %31, 63
  %33 = getelementptr inbounds nuw %struct.tm, ptr %5, i32 0, i32 1
  store i32 %32, ptr %33, align 4, !tbaa !140
  %34 = load i32, ptr %3, align 4, !tbaa !11
  %35 = shl i32 %34, 1
  %36 = and i32 %35, 62
  %37 = getelementptr inbounds nuw %struct.tm, ptr %5, i32 0, i32 0
  store i32 %36, ptr %37, align 8, !tbaa !141
  %38 = getelementptr inbounds nuw %struct.tm, ptr %5, i32 0, i32 8
  store i32 -1, ptr %38, align 8, !tbaa !142
  %39 = call i64 @mktime(ptr noundef %5) #11
  call void @llvm.lifetime.end.p0(i64 56, ptr %5) #11
  call void @llvm.lifetime.end.p0(i64 4, ptr %4) #11
  call void @llvm.lifetime.end.p0(i64 4, ptr %3) #11
  ret i64 %39
}