; Function Attrs: mustprogress nofree nounwind willreturn uwtable
define internal fastcc noundef i64 @cab_dos_time(ptr noundef nonnull readonly captures(none) %0) unnamed_addr #8 {
  %2 = alloca %struct.tm, align 8
  call void @llvm.lifetime.start.p0(i64 56, ptr nonnull %2) #18
  %.val8 = load i8, ptr %0, align 1, !tbaa !4
  %3 = getelementptr i8, ptr %0, i64 1
  %.val9 = load i8, ptr %3, align 1, !tbaa !4
  %4 = zext i8 %.val9 to i32
  %5 = zext i8 %.val8 to i32
  %6 = shl nuw nsw i32 %4, 8
  %7 = or disjoint i32 %6, %5
  %8 = getelementptr inbounds nuw i8, ptr %0, i64 2
  %.val = load i8, ptr %8, align 1, !tbaa !4
  %9 = getelementptr i8, ptr %0, i64 3
  %.val7 = load i8, ptr %9, align 1, !tbaa !4
  %10 = zext i8 %.val7 to i32
  %11 = zext i8 %.val to i32
  %12 = shl nuw nsw i32 %10, 8
  %13 = or disjoint i32 %12, %11
  %14 = getelementptr inbounds nuw i8, ptr %2, i64 24
  call void @llvm.memset.p0.i64(ptr noundef nonnull align 8 dereferenceable(56) %14, i8 0, i64 32, i1 false)
  %15 = lshr i32 %4, 1
  %16 = add nuw nsw i32 %15, 80
  %17 = getelementptr inbounds nuw i8, ptr %2, i64 20
  store i32 %16, ptr %17, align 4, !tbaa !123
  %18 = lshr i32 %7, 5
  %19 = and i32 %18, 15
  %20 = add nsw i32 %19, -1
  %21 = getelementptr inbounds nuw i8, ptr %2, i64 16
  store i32 %20, ptr %21, align 8, !tbaa !125
  %22 = and i32 %5, 31
  %23 = getelementptr inbounds nuw i8, ptr %2, i64 12
  store i32 %22, ptr %23, align 4, !tbaa !126
  %24 = lshr i32 %10, 3
  %25 = getelementptr inbounds nuw i8, ptr %2, i64 8
  store i32 %24, ptr %25, align 8, !tbaa !127
  %26 = lshr i32 %13, 5
  %27 = and i32 %26, 63
  %28 = getelementptr inbounds nuw i8, ptr %2, i64 4
  store i32 %27, ptr %28, align 4, !tbaa !128
  %29 = shl nuw nsw i32 %11, 1
  %30 = and i32 %29, 62
  store i32 %30, ptr %2, align 8, !tbaa !129
  %31 = getelementptr inbounds nuw i8, ptr %2, i64 32
  store i32 -1, ptr %31, align 8, !tbaa !130
  %32 = call i64 @mktime(ptr noundef nonnull %2) #18
  call void @llvm.lifetime.end.p0(i64 56, ptr nonnull %2) #18
  ret i64 %32
}